Certificate:
    Data:
        Version: 3 (0x2)
        Serial Number: 2 (0x2)
        Signature Algorithm: sha256WithRSAEncryption
        Issuer: C=US, ST=Maryland, L=Baltimore, O=Test CA, Limited, OU=Server Research Department, CN=Test CA/emailAddress=test@example.com
        Validity
            Not Before: Sep  8 13:23:24 2022 GMT
            Not After : Sep  8 13:23:24 2023 GMT
        Subject: C=US, ST=MD, L=Baltimore, O=Test Server, Limited, CN=Test Server
        Subject Public Key Info:
            Public Key Algorithm: rsaEncryption
                RSA Public-Key: (2048 bit)
                Modulus:
                    00:c3:29:a2:e3:b1:c5:8d:3e:b5:86:46:a0:aa:57:
                    9c:d1:16:3f:fc:5a:98:d8:45:8b:c6:ce:29:b7:84:
                    17:be:86:41:f1:55:6c:3e:f2:a5:36:f3:a8:06:d5:
                    40:29:39:17:db:ad:9e:d4:7a:ce:ce:14:ea:2c:99:
                    8b:18:12:a3:d2:18:ee:af:02:ee:50:50:be:11:de:
                    96:e3:90:15:dc:c8:2a:f8:41:3f:5f:ea:31:5d:5b:
                    e6:8d:af:43:d3:a9:b1:f4:da:6c:51:e0:6d:2b:2f:
                    4f:4c:31:d0:f7:72:6e:b8:4d:90:81:92:27:1c:36:
                    b6:38:75:af:f5:62:c3:dd:f3:e6:67:10:8b:bf:21:
                    c0:e6:3a:8e:8b:f9:e3:4a:11:b1:f6:e6:1c:42:a4:
                    e2:6d:c4:51:a3:4f:9f:7b:75:37:c1:b5:fa:04:68:
                    82:92:1a:dc:86:4e:a8:4a:86:4b:00:27:7f:17:a8:
                    23:55:b0:39:11:6f:92:75:4e:0d:12:e2:1f:38:5d:
                    af:ce:3a:06:d8:cd:30:e6:b0:0f:6f:31:d0:e1:e9:
                    f4:f5:d8:6a:43:d5:7b:f6:56:d5:29:0e:7b:00:80:
                    80:51:1e:4a:4d:3f:e0:0f:7f:2b:fd:7e:dc:da:8b:
                    81:04:2a:f9:be:38:42:bc:4c:83:0f:5a:9b:be:ac:
                    0d:db
                Exponent: 65537 (0x10001)
        X509v3 extensions:
            X509v3 Subject Key Identifier: 
                3E:B6:55:AE:8B:E7:A0:2B:FF:E3:09:6D:62:83:75:5F:0E:0D:50:8C
            X509v3 Authority Key Identifier: 
                keyid:1F:0D:F9:71:B7:6E:31:69:A9:58:BA:C5:A5:A3:E8:57:AE:10:CE:94

            X509v3 Basic Constraints: 
                CA:FALSE
            X509v3 Key Usage: 
                Digital Signature, Key Encipherment
            X509v3 Subject Alternative Name: 
                DNS:example.com, DNS:www.example.com, DNS:mail.example.com, DNS:ftp.example.com, DNS:udr-service.default.svc.cluster.local, DNS:udsf-service.default.svc.cluster.local, DNS:nrfc-service.default.svc.cluster.local, DNS:nfhealthcheck-service.default.svc.cluster.local, DNS:nrfsimulator.com, IP Address:127.0.0.1, IP Address:192.168.1.117, IP Address:0:0:0:0:0:0:0:1
            Netscape Comment: 
                OpenSSL Generated Certificate
    Signature Algorithm: sha256WithRSAEncryption
         52:4f:c4:f2:eb:b3:d4:13:c3:00:21:f5:48:2e:a2:86:88:0b:
         e8:65:4a:64:e7:ac:2e:69:33:9b:92:be:d5:86:da:86:29:a6:
         af:4b:2d:b7:98:35:3d:cc:3d:fe:2e:0f:00:10:4a:ac:fd:e8:
         56:e6:7e:9f:48:c4:51:8b:75:01:86:db:b6:6b:e0:89:d1:54:
         d0:48:fa:32:f5:d3:e7:d3:d8:ee:89:62:fd:b0:cd:d6:59:b5:
         97:92:9a:cd:21:cf:3b:b3:9c:b7:07:de:05:d7:58:f6:1e:53:
         12:b8:6d:f2:53:1e:32:b4:c1:91:90:12:b0:cf:63:30:f3:52:
         eb:89:bd:f2:aa:d3:05:4f:f1:05:45:dd:76:9a:91:62:71:d2:
         90:4e:32:22:e5:ab:ec:0a:0f:e2:fd:df:0d:5c:4d:00:e2:72:
         ef:db:08:20:e1:66:5b:ab:4f:76:79:8f:08:8d:23:79:de:e8:
         d3:6b:ce:02:38:a3:38:5c:7f:e9:e7:bc:1a:69:60:eb:61:f6:
         ad:e3:ae:e0:57:e8:c3:0c:ae:0b:07:11:5b:50:27:49:e4:a5:
         15:4a:83:0f:46:f0:48:c3:b1:a4:d6:f9:e3:f6:a5:6c:39:22:
         32:81:13:23:08:ca:b3:81:f6:ab:d7:b6:d0:83:9b:81:ca:a3:
         9b:cb:91:2d:17:66:de:cc:b6:02:18:d7:a9:90:78:9c:e3:cd:
         3f:11:29:0e:2c:41:36:93:6d:fc:d6:41:86:81:d1:0c:cf:4e:
         97:a6:53:7b:2a:89:f1:1b:9c:2a:82:01:02:73:0c:74:1e:88:
         f5:f4:16:0f:ac:49:e2:4c:7b:35:65:b5:fb:68:a4:6d:dd:9b:
         d3:84:b6:21:56:81:06:44:86:7b:1e:f2:80:24:3a:af:cf:20:
         0b:8d:c9:b2:64:25:30:d8:f8:ab:db:92:be:bf:83:f1:6f:34:
         24:73:b1:f3:54:fa:44:81:1f:28:ec:30:3c:31:3e:94:7b:5a:
         f2:d4:66:43:af:3d:c5:fc:b7:60:51:e3:8e:e5:d2:2f:4e:ae:
         a1:83:03:7d:25:c2:53:41:44:80:50:d8:32:1d:9c:d5:15:90:
         ed:9d:b6:cc:46:aa:91:f9:67:0d:50:be:c9:5a:bc:aa:27:09:
         f0:c6:b5:38:9e:ef:da:e3:f3:5a:2f:f2:9d:08:85:ca:04:09:
         71:e7:2f:9f:6b:6b:66:92:3d:4d:0d:fe:b7:87:e2:c3:71:a5:
         48:2f:ed:08:e5:82:12:95:7c:4c:38:8a:a0:52:ce:66:ce:86:
         04:e3:a7:b0:8d:ce:e2:df:7e:2c:51:ef:25:6c:35:84:32:43:
         3b:9e:94:09:cb:c9:29:0a
-----BEGIN CERTIFICATE-----
MIIGPDCCBCSgAwIBAgIBAjANBgkqhkiG9w0BAQsFADCBpzELMAkGA1UEBhMCVVMx
ETAPBgNVBAgMCE1hcnlsYW5kMRIwEAYDVQQHDAlCYWx0aW1vcmUxGTAXBgNVBAoM
EFRlc3QgQ0EsIExpbWl0ZWQxIzAhBgNVBAsMGlNlcnZlciBSZXNlYXJjaCBEZXBh
cnRtZW50MRAwDgYDVQQDDAdUZXN0IENBMR8wHQYJKoZIhvcNAQkBFhB0ZXN0QGV4
YW1wbGUuY29tMB4XDTIyMDkwODEzMjMyNFoXDTIzMDkwODEzMjMyNFowYzELMAkG
A1UEBhMCVVMxCzAJBgNVBAgMAk1EMRIwEAYDVQQHDAlCYWx0aW1vcmUxHTAbBgNV
BAoMFFRlc3QgU2VydmVyLCBMaW1pdGVkMRQwEgYDVQQDDAtUZXN0IFNlcnZlcjCC
ASIwDQYJKoZIhvcNAQEBBQADggEPADCCAQoCggEBAMMpouOxxY0+tYZGoKpXnNEW
P/xamNhFi8bOKbeEF76GQfFVbD7ypTbzqAbVQCk5F9utntR6zs4U6iyZixgSo9IY
7q8C7lBQvhHeluOQFdzIKvhBP1/qMV1b5o2vQ9OpsfTabFHgbSsvT0wx0PdybrhN
kIGSJxw2tjh1r/Viw93z5mcQi78hwOY6jov540oRsfbmHEKk4m3EUaNPn3t1N8G1
+gRogpIa3IZOqEqGSwAnfxeoI1WwORFvknVODRLiHzhdr846BtjNMOawD28x0OHp
9PXYakPVe/ZW1SkOewCAgFEeSk0/4A9/K/1+3NqLgQQq+b44QrxMgw9am76sDdsC
AwEAAaOCAbQwggGwMB0GA1UdDgQWBBQ+tlWui+egK//jCW1ig3VfDg1QjDAfBgNV
HSMEGDAWgBQfDflxt24xaalYusWlo+hXrhDOlDAJBgNVHRMEAjAAMAsGA1UdDwQE
AwIFoDCCASYGA1UdEQSCAR0wggEZggtleGFtcGxlLmNvbYIPd3d3LmV4YW1wbGUu
Y29tghBtYWlsLmV4YW1wbGUuY29tgg9mdHAuZXhhbXBsZS5jb22CJXVkci1zZXJ2
aWNlLmRlZmF1bHQuc3ZjLmNsdXN0ZXIubG9jYWyCJnVkc2Ytc2VydmljZS5kZWZh
dWx0LnN2Yy5jbHVzdGVyLmxvY2FsgiZucmZjLXNlcnZpY2UuZGVmYXVsdC5zdmMu
Y2x1c3Rlci5sb2NhbIIvbmZoZWFsdGhjaGVjay1zZXJ2aWNlLmRlZmF1bHQuc3Zj
LmNsdXN0ZXIubG9jYWyCEG5yZnNpbXVsYXRvci5jb22HBH8AAAGHBMCoAXWHEAAA
AAAAAAAAAAAAAAAAAAEwLAYJYIZIAYb4QgENBB8WHU9wZW5TU0wgR2VuZXJhdGVk
IENlcnRpZmljYXRlMA0GCSqGSIb3DQEBCwUAA4ICAQBST8Ty67PUE8MAIfVILqKG
iAvoZUpk56wuaTObkr7VhtqGKaavSy23mDU9zD3+Lg8AEEqs/ehW5n6fSMRRi3UB
htu2a+CJ0VTQSPoy9dPn09juiWL9sM3WWbWXkprNIc87s5y3B94F11j2HlMSuG3y
Ux4ytMGRkBKwz2Mw81Lrib3yqtMFT/EFRd12mpFicdKQTjIi5avsCg/i/d8NXE0A
4nLv2wgg4WZbq092eY8IjSN53ujTa84COKM4XH/p57waaWDrYfat467gV+jDDK4L
BxFbUCdJ5KUVSoMPRvBIw7Gk1vnj9qVsOSIygRMjCMqzgfar17bQg5uByqOby5Et
F2bezLYCGNepkHic480/ESkOLEE2k2381kGGgdEMz06XplN7KonxG5wqggECcwx0
Hoj19BYPrEniTHs1ZbX7aKRt3ZvThLYhVoEGRIZ7HvKAJDqvzyALjcmyZCUw2Pir
25K+v4PxbzQkc7HzVPpEgR8o7DA8MT6Ue1ry1GZDrz3F/LdgUeOO5dIvTq6hgwN9
JcJTQUSAUNgyHZzVFZDtnbbMRqqR+WcNUL7JWryqJwnwxrU4nu/a4/NaL/KdCIXK
BAlx5y+fa2tmkj1NDf63h+LDcaVIL+0I5YISlXxMOIqgUs5mzoYE46ewjc7i334s
Ue8lbDWEMkM7npQJy8kpCg==
-----END CERTIFICATE-----
